target datalayout = "e-m:e-p270:32:32-p271:32:32-p272:64:64-i64:64-i128:128-f80:128-n8:16:32:64-S128"
target triple = "x86_64-pc-linux-gnu"

%"class.pxrInternal_v0_24__pxrReserved__::TfEnum" = type <{ ptr, i32, [4 x i8] }>

@.str.8 = private unnamed_addr constant [34 x i8] c"UsdListPositionFrontOfPrependList\00", align 1
@.str.9 = private unnamed_addr constant [31 x i8] c"The front of the prepend list.\00", align 1
@.str.10 = private unnamed_addr constant [33 x i8] c"UsdListPositionBackOfPrependList\00", align 1
@.str.11 = private unnamed_addr constant [30 x i8] c"The back of the prepend list.\00", align 1
@.str.12 = private unnamed_addr constant [33 x i8] c"UsdListPositionFrontOfAppendList\00", align 1
@.str.13 = private unnamed_addr constant [30 x i8] c"The front of the append list.\00", align 1
@.str.14 = private unnamed_addr constant [32 x i8] c"UsdListPositionBackOfAppendList\00", align 1
@.str.15 = private unnamed_addr constant [29 x i8] c"The back of the append list.\00", align 1
@.str.16 = private unnamed_addr constant [23 x i8] c"UsdLoadWithDescendants\00", align 1
@.str.17 = private unnamed_addr constant [30 x i8] c"Load prim and all descendants\00", align 1
@.str.18 = private unnamed_addr constant [26 x i8] c"UsdLoadWithoutDescendants\00", align 1
@.str.19 = private unnamed_addr constant [29 x i8] c"Load prim and no descendants\00", align 1
@_ZTIN32pxrInternal_v0_24__pxrReserved__15UsdListPositionE = linkonce_odr constant { ptr, ptr } { ptr getelementptr inbounds (ptr, ptr @_ZTVN10__cxxabiv116__enum_type_infoE, i64 2), ptr @_ZTSN32pxrInternal_v0_24__pxrReserved__15UsdListPositionE }, comdat, align 8
@_ZTIN32pxrInternal_v0_24__pxrReserved__13UsdLoadPolicyE = linkonce_odr constant { ptr, ptr } { ptr getelementptr inbounds (ptr, ptr @_ZTVN10__cxxabiv116__enum_type_infoE, i64 2), ptr @_ZTSN32pxrInternal_v0_24__pxrReserved__13UsdLoadPolicyE }, comdat, align 8

; Function Attrs: mustprogress nounwind uwtable
define linkonce_odr void @_ZN32pxrInternal_v0_24__pxrReserved__6TfEnumC2INS_13UsdLoadPolicyEEET_PNSt9enable_ifIXsr3std7is_enumIS3_EE5valueEvE4typeE(ptr noundef nonnull align 8 dereferenceable(12) %0, i32 noundef %1, ptr noundef %2) unnamed_addr #2 comdat align 2 {
  %4 = alloca ptr, align 8
  %5 = alloca i32, align 4
  %6 = alloca ptr, align 8
  store ptr %0, ptr %4, align 8
  store i32 %1, ptr %5, align 4
  store ptr %2, ptr %6, align 8
  %7 = load ptr, ptr %4, align 8
  %8 = getelementptr inbounds nuw %"class.pxrInternal_v0_24__pxrReserved__::TfEnum", ptr %7, i32 0, i32 0
  store ptr @_ZTIN32pxrInternal_v0_24__pxrReserved__13UsdLoadPolicyE, ptr %8, align 8
  %9 = getelementptr inbounds nuw %"class.pxrInternal_v0_24__pxrReserved__::TfEnum", ptr %7, i32 0, i32 1
  %10 = load i32, ptr %5, align 4
  store i32 %10, ptr %9, align 8
  ret void
}

; Function Attrs: mustprogress nounwind uwtable
define linkonce_odr noundef ptr @_ZN32pxrInternal_v0_24__pxrReserved__6TfEnum10_NameIdentEPKc(ptr noundef %0) #2 comdat align 2 {
  %2 = alloca ptr, align 8
  store ptr %0, ptr %2, align 8
  %3 = load ptr, ptr %2, align 8
  ret ptr %3
}

; Function Attrs: mustprogress nounwind uwtable
define linkonce_odr void @_ZN32pxrInternal_v0_24__pxrReserved__6TfEnumC2INS_15UsdListPositionEEET_PNSt9enable_ifIXsr3std7is_enumIS3_EE5valueEvE4typeE(ptr noundef nonnull align 8 dereferenceable(12) %0, i32 noundef %1, ptr noundef %2) unnamed_addr #2 comdat align 2 {
  %4 = alloca ptr, align 8
  %5 = alloca i32, align 4
  %6 = alloca ptr, align 8
  store ptr %0, ptr %4, align 8
  store i32 %1, ptr %5, align 4
  store ptr %2, ptr %6, align 8
  %7 = load ptr, ptr %4, align 8
  %8 = getelementptr inbounds nuw %"class.pxrInternal_v0_24__pxrReserved__::TfEnum", ptr %7, i32 0, i32 0
  store ptr @_ZTIN32pxrInternal_v0_24__pxrReserved__15UsdListPositionE, ptr %8, align 8
  %9 = getelementptr inbounds nuw %"class.pxrInternal_v0_24__pxrReserved__::TfEnum", ptr %7, i32 0, i32 1
  %10 = load i32, ptr %5, align 4
  store i32 %10, ptr %9, align 8
  ret void
}

; Function Attrs: mustprogress uwtable
define internal void @_ZN32pxrInternal_v0_24__pxrReserved__L22_Tf_RegistryFunction20EPNS_6TfEnumEPv(ptr noundef %0, ptr noundef %1) #0 {
  %3 = alloca ptr, align 8
  %4 = alloca ptr, align 8
  %5 = alloca %"class.pxrInternal_v0_24__pxrReserved__::TfEnum", align 8
  %6 = alloca %"class.pxrInternal_v0_24__pxrReserved__::TfEnum", align 8
  %7 = alloca %"class.pxrInternal_v0_24__pxrReserved__::TfEnum", align 8
  %8 = alloca %"class.pxrInternal_v0_24__pxrReserved__::TfEnum", align 8
  %9 = alloca %"class.pxrInternal_v0_24__pxrReserved__::TfEnum", align 8
  %10 = alloca %"class.pxrInternal_v0_24__pxrReserved__::TfEnum", align 8
  store ptr %0, ptr %3, align 8
  store ptr %1, ptr %4, align 8
  call void @_ZN32pxrInternal_v0_24__pxrReserved__6TfEnumC2INS_15UsdListPositionEEET_PNSt9enable_ifIXsr3std7is_enumIS3_EE5valueEvE4typeE(ptr noundef nonnull align 8 dereferenceable(12) %5, i32 noundef 0, ptr noundef null)
  %11 = call noundef ptr @_ZN32pxrInternal_v0_24__pxrReserved__6TfEnum10_NameIdentEPKc(ptr noundef @.str.9)
  %12 = getelementptr inbounds nuw { ptr, i32 }, ptr %5, i32 0, i32 0
  %13 = load ptr, ptr %12, align 8
  %14 = getelementptr inbounds nuw { ptr, i32 }, ptr %5, i32 0, i32 1
  %15 = load i32, ptr %14, align 8
  call void @_ZN32pxrInternal_v0_24__pxrReserved__6TfEnum8_AddNameES0_PKcS2_(ptr %13, i32 %15, ptr noundef @.str.8, ptr noundef %11)
  call void @_ZN32pxrInternal_v0_24__pxrReserved__6TfEnumC2INS_15UsdListPositionEEET_PNSt9enable_ifIXsr3std7is_enumIS3_EE5valueEvE4typeE(ptr noundef nonnull align 8 dereferenceable(12) %6, i32 noundef 1, ptr noundef null)
  %16 = call noundef ptr @_ZN32pxrInternal_v0_24__pxrReserved__6TfEnum10_NameIdentEPKc(ptr noundef @.str.11)
  %17 = getelementptr inbounds nuw { ptr, i32 }, ptr %6, i32 0, i32 0
  %18 = load ptr, ptr %17, align 8
  %19 = getelementptr inbounds nuw { ptr, i32 }, ptr %6, i32 0, i32 1
  %20 = load i32, ptr %19, align 8
  call void @_ZN32pxrInternal_v0_24__pxrReserved__6TfEnum8_AddNameES0_PKcS2_(ptr %18, i32 %20, ptr noundef @.str.10, ptr noundef %16)
  call void @_ZN32pxrInternal_v0_24__pxrReserved__6TfEnumC2INS_15UsdListPositionEEET_PNSt9enable_ifIXsr3std7is_enumIS3_EE5valueEvE4typeE(ptr noundef nonnull align 8 dereferenceable(12) %7, i32 noundef 2, ptr noundef null)
  %21 = call noundef ptr @_ZN32pxrInternal_v0_24__pxrReserved__6TfEnum10_NameIdentEPKc(ptr noundef @.str.13)
  %22 = getelementptr inbounds nuw { ptr, i32 }, ptr %7, i32 0, i32 0
  %23 = load ptr, ptr %22, align 8
  %24 = getelementptr inbounds nuw { ptr, i32 }, ptr %7, i32 0, i32 1
  %25 = load i32, ptr %24, align 8
  call void @_ZN32pxrInternal_v0_24__pxrReserved__6TfEnum8_AddNameES0_PKcS2_(ptr %23, i32 %25, ptr noundef @.str.12, ptr noundef %21)
  call void @_ZN32pxrInternal_v0_24__pxrReserved__6TfEnumC2INS_15UsdListPositionEEET_PNSt9enable_ifIXsr3std7is_enumIS3_EE5valueEvE4typeE(ptr noundef nonnull align 8 dereferenceable(12) %8, i32 noundef 3, ptr noundef null)
  %26 = call noundef ptr @_ZN32pxrInternal_v0_24__pxrReserved__6TfEnum10_NameIdentEPKc(ptr noundef @.str.15)
  %27 = getelementptr inbounds nuw { ptr, i32 }, ptr %8, i32 0, i32 0
  %28 = load ptr, ptr %27, align 8
  %29 = getelementptr inbounds nuw { ptr, i32 }, ptr %8, i32 0, i32 1
  %30 = load i32, ptr %29, align 8
  call void @_ZN32pxrInternal_v0_24__pxrReserved__6TfEnum8_AddNameES0_PKcS2_(ptr %28, i32 %30, ptr noundef @.str.14, ptr noundef %26)
  call void @_ZN32pxrInternal_v0_24__pxrReserved__6TfEnumC2INS_13UsdLoadPolicyEEET_PNSt9enable_ifIXsr3std7is_enumIS3_EE5valueEvE4typeE(ptr noundef nonnull align 8 dereferenceable(12) %9, i32 noundef 0, ptr noundef null)
  %31 = call noundef ptr @_ZN32pxrInternal_v0_24__pxrReserved__6TfEnum10_NameIdentEPKc(ptr noundef @.str.17)
  %32 = getelementptr inbounds nuw { ptr, i32 }, ptr %9, i32 0, i32 0
  %33 = load ptr, ptr %32, align 8
  %34 = getelementptr inbounds nuw { ptr, i32 }, ptr %9, i32 0, i32 1
  %35 = load i32, ptr %34, align 8
  call void @_ZN32pxrInternal_v0_24__pxrReserved__6TfEnum8_AddNameES0_PKcS2_(ptr %33, i32 %35, ptr noundef @.str.16, ptr noundef %31)
  call void @_ZN32pxrInternal_v0_24__pxrReserved__6TfEnumC2INS_13UsdLoadPolicyEEET_PNSt9enable_ifIXsr3std7is_enumIS3_EE5valueEvE4typeE(ptr noundef nonnull align 8 dereferenceable(12) %10, i32 noundef 1, ptr noundef null)
  %36 = call noundef ptr @_ZN32pxrInternal_v0_24__pxrReserved__6TfEnum10_NameIdentEPKc(ptr noundef @.str.19)
  %37 = getelementptr inbounds nuw { ptr, i32 }, ptr %10, i32 0, i32 0
  %38 = load ptr, ptr %37, align 8
  %39 = getelementptr inbounds nuw { ptr, i32 }, ptr %10, i32 0, i32 1
  %40 = load i32, ptr %39, align 8
  call void @_ZN32pxrInternal_v0_24__pxrReserved__6TfEnum8_AddNameES0_PKcS2_(ptr %38, i32 %40, ptr noundef @.str.18, ptr noundef %36)
  ret void
}