; Function Attrs: mustprogress uwtable
define internal void @_ZN32pxrInternal_v0_24__pxrReserved__L22_Tf_RegistryFunction20EPNS_6TfEnumEPv(ptr readnone captures(none) %0, ptr readnone captures(none) %1) #0 {
  tail call void @_ZN32pxrInternal_v0_24__pxrReserved__6TfEnum8_AddNameES0_PKcS2_(ptr nonnull @_ZTIN32pxrInternal_v0_24__pxrReserved__15UsdListPositionE, i32 0, ptr noundef nonnull @.str.8, ptr noundef nonnull @.str.9)
  tail call void @_ZN32pxrInternal_v0_24__pxrReserved__6TfEnum8_AddNameES0_PKcS2_(ptr nonnull @_ZTIN32pxrInternal_v0_24__pxrReserved__15UsdListPositionE, i32 1, ptr noundef nonnull @.str.10, ptr noundef nonnull @.str.11)
  tail call void @_ZN32pxrInternal_v0_24__pxrReserved__6TfEnum8_AddNameES0_PKcS2_(ptr nonnull @_ZTIN32pxrInternal_v0_24__pxrReserved__15UsdListPositionE, i32 2, ptr noundef nonnull @.str.12, ptr noundef nonnull @.str.13)
  tail call void @_ZN32pxrInternal_v0_24__pxrReserved__6TfEnum8_AddNameES0_PKcS2_(ptr nonnull @_ZTIN32pxrInternal_v0_24__pxrReserved__15UsdListPositionE, i32 3, ptr noundef nonnull @.str.14, ptr noundef nonnull @.str.15)
  tail call void @_ZN32pxrInternal_v0_24__pxrReserved__6TfEnum8_AddNameES0_PKcS2_(ptr nonnull @_ZTIN32pxrInternal_v0_24__pxrReserved__13UsdLoadPolicyE, i32 0, ptr noundef nonnull @.str.16, ptr noundef nonnull @.str.17)
  tail call void @_ZN32pxrInternal_v0_24__pxrReserved__6TfEnum8_AddNameES0_PKcS2_(ptr nonnull @_ZTIN32pxrInternal_v0_24__pxrReserved__13UsdLoadPolicyE, i32 1, ptr noundef nonnull @.str.18, ptr noundef nonnull @.str.19)
  ret void
}